target datalayout = "e-m:e-p270:32:32-p271:32:32-p272:64:64-i64:64-i128:128-f80:128-n8:16:32:64-S128"
target triple = "x86_64-pc-linux-gnu"

%"class.llvm::StringRef" = type { ptr, i64 }
%"class.clang::targets::ARMTargetInfo" = type { %"class.clang::TargetInfo.base", %"class.std::__cxx11::basic_string", %"class.std::__cxx11::basic_string", %"class.llvm::StringRef", %"class.llvm::StringRef", i32, i32, i32, i32, i32, i32, i32, i32 }
%"class.clang::TargetInfo.base" = type <{ ptr, %"struct.clang::TransferrableTargetInfo.base", %"class.llvm::RefCountedBase", %"class.std::shared_ptr", %"class.llvm::Triple", i8, i8, i8, i8, i8, i8, i8, i8, i8, i8, i8, i8, i8, i8, i8, i8, %"class.std::__cxx11::basic_string", ptr, ptr, i8, i8, [2 x i8], %"class.clang::TargetCXXABI", ptr, %"class.llvm::StringRef", %"class.llvm::VersionTuple", i32, i32, %"class.std::optional", %"class.std::optional.0", %"class.llvm::StringSet", i8 }>
%"struct.clang::TransferrableTargetInfo.base" = type <{ i8, i8, i8, i8, i8, i8, i8, i8, i8, i8, i8, i8, i8, i8, i8, i8, i8, i8, i8, i8, i8, i8, i8, i8, i8, [3 x i8], %"class.std::optional", i8, i8, i8, i8, i8, i8, i8, i8, i8, i8, i8, i8, i8, i8, i8, i8, i8, i8, i16, i16, [2 x i8], i32, i32, [4 x i8], ptr, ptr, ptr, ptr, ptr, ptr, ptr, i32, i32, i32, i32, i32, i32, i32, i32, i32, i32, i32, i32, i8, [3 x i8], i32, i32 }>
%"class.llvm::RefCountedBase" = type { i32 }
%"class.std::shared_ptr" = type { %"class.std::__shared_ptr" }
%"class.std::__shared_ptr" = type { ptr, %"class.std::__shared_count" }
%"class.std::__shared_count" = type { ptr }
%"class.llvm::Triple" = type { %"class.std::__cxx11::basic_string", i32, i32, i32, i32, i32, i32 }
%"class.clang::TargetCXXABI" = type { i32 }
%"class.llvm::VersionTuple" = type { i64, i64 }
%"class.std::optional" = type { %"struct.std::_Optional_base" }
%"struct.std::_Optional_base" = type { %"struct.std::_Optional_payload" }
%"struct.std::_Optional_payload" = type { %"struct.std::_Optional_payload_base.base", [3 x i8] }
%"struct.std::_Optional_payload_base.base" = type <{ %"union.std::_Optional_payload_base<unsigned int>::_Storage", i8 }>
%"union.std::_Optional_payload_base<unsigned int>::_Storage" = type { i32 }
%"class.std::optional.0" = type { %"struct.std::_Optional_base.1" }
%"struct.std::_Optional_base.1" = type { %"struct.std::_Optional_payload.3" }
%"struct.std::_Optional_payload.3" = type { %"struct.std::_Optional_payload.base.7", [7 x i8] }
%"struct.std::_Optional_payload.base.7" = type { %"struct.std::_Optional_payload_base.base.6" }
%"struct.std::_Optional_payload_base.base.6" = type <{ %"union.std::_Optional_payload_base<llvm::Triple>::_Storage", i8 }>
%"union.std::_Optional_payload_base<llvm::Triple>::_Storage" = type { %"class.llvm::Triple" }
%"class.llvm::StringSet" = type { %"class.llvm::StringMap" }
%"class.llvm::StringMap" = type { %"class.llvm::StringMapImpl" }
%"class.llvm::StringMapImpl" = type { ptr, i32, i32, i32, i32 }
%"class.std::__cxx11::basic_string" = type { %"struct.std::__cxx11::basic_string<char>::_Alloc_hider", i64, %union.anon }
%"struct.std::__cxx11::basic_string<char>::_Alloc_hider" = type { ptr }
%union.anon = type { i64, [8 x i8] }
%"struct.clang::TransferrableTargetInfo" = type <{ i8, i8, i8, i8, i8, i8, i8, i8, i8, i8, i8, i8, i8, i8, i8, i8, i8, i8, i8, i8, i8, i8, i8, i8, i8, [3 x i8], %"class.std::optional", i8, i8, i8, i8, i8, i8, i8, i8, i8, i8, i8, i8, i8, i8, i8, i8, i8, i8, i16, i16, [2 x i8], i32, i32, [4 x i8], ptr, ptr, ptr, ptr, ptr, ptr, ptr, i32, i32, i32, i32, i32, i32, i32, i32, i32, i32, i32, i32, i8, [3 x i8], i32, i32, [4 x i8] }>
%"class.clang::TargetInfo" = type <{ ptr, %"struct.clang::TransferrableTargetInfo.base", %"class.llvm::RefCountedBase", %"class.std::shared_ptr", %"class.llvm::Triple", i8, i8, i8, i8, i8, i8, i8, i8, i8, i8, i8, i8, i8, i8, i8, i8, %"class.std::__cxx11::basic_string", ptr, ptr, i8, i8, [2 x i8], %"class.clang::TargetCXXABI", ptr, %"class.llvm::StringRef", %"class.llvm::VersionTuple", i32, i32, %"class.std::optional", %"class.std::optional.0", %"class.llvm::StringSet", i8, [7 x i8] }>
%"class.clang::targets::WindowsARMTargetInfo" = type { %"class.clang::targets::WindowsTargetInfo", %"class.llvm::Triple" }
%"class.clang::targets::WindowsTargetInfo" = type { %"class.clang::targets::OSTargetInfo" }
%"class.clang::targets::OSTargetInfo" = type { %"class.clang::targets::ARMleTargetInfo" }
%"class.clang::targets::ARMleTargetInfo" = type { %"class.clang::targets::ARMTargetInfo" }

; Function Attrs: mustprogress nounwind uwtable
define hidden void @_ZN5clang7targets15ARMleTargetInfoC2ERKN4llvm6TripleERKNS_13TargetOptionsE(ptr noundef nonnull align 8 dereferenceable(624) %0, ptr noundef nonnull align 8 dereferenceable(56) %1, ptr noundef nonnull align 8 dereferenceable(536) %2) unnamed_addr #0 align 2 {
  %4 = alloca ptr, align 8
  %5 = alloca ptr, align 8
  %6 = alloca ptr, align 8
  store ptr %0, ptr %4, align 8
  store ptr %1, ptr %5, align 8
  store ptr %2, ptr %6, align 8
  %7 = load ptr, ptr %4, align 8
  %8 = load ptr, ptr %5, align 8
  %9 = load ptr, ptr %6, align 8
  call void @_ZN5clang7targets13ARMTargetInfoC2ERKN4llvm6TripleERKNS_13TargetOptionsE(ptr noundef nonnull align 8 dereferenceable(624) %7, ptr noundef nonnull align 8 dereferenceable(56) %8, ptr noundef nonnull align 8 dereferenceable(536) %9)
  store ptr getelementptr inbounds inrange(-16, 968) ({ [123 x ptr] }, ptr @_ZTVN5clang7targets15ARMleTargetInfoE, i32 0, i32 0, i32 2), ptr %7, align 8
  ret void
}

; Function Attrs: mustprogress nounwind uwtable
define linkonce_odr hidden void @_ZN5clang7targets12OSTargetInfoINS0_15ARMleTargetInfoEEC2ERKN4llvm6TripleERKNS_13TargetOptionsE(ptr noundef nonnull align 8 dereferenceable(624) %0, ptr noundef nonnull align 8 dereferenceable(56) %1, ptr noundef nonnull align 8 dereferenceable(536) %2) unnamed_addr #0 comdat align 2 {
  %4 = alloca ptr, align 8
  %5 = alloca ptr, align 8
  %6 = alloca ptr, align 8
  store ptr %0, ptr %4, align 8
  store ptr %1, ptr %5, align 8
  store ptr %2, ptr %6, align 8
  %7 = load ptr, ptr %4, align 8
  %8 = load ptr, ptr %5, align 8
  %9 = load ptr, ptr %6, align 8
  call void @_ZN5clang7targets15ARMleTargetInfoC2ERKN4llvm6TripleERKNS_13TargetOptionsE(ptr noundef nonnull align 8 dereferenceable(624) %7, ptr noundef nonnull align 8 dereferenceable(56) %8, ptr noundef nonnull align 8 dereferenceable(536) %9)
  store ptr getelementptr inbounds inrange(-16, 976) ({ [124 x ptr] }, ptr @_ZTVN5clang7targets12OSTargetInfoINS0_15ARMleTargetInfoEEE, i32 0, i32 0, i32 2), ptr %7, align 8
  ret void
}

; Function Attrs: mustprogress nounwind uwtable
define linkonce_odr hidden void @_ZN4llvm6TripleC2ERKS0_(ptr noundef nonnull align 8 dereferenceable(56) %0, ptr noundef nonnull align 8 dereferenceable(56) %1) unnamed_addr #0 comdat align 2 {
  %3 = alloca ptr, align 8
  %4 = alloca ptr, align 8
  store ptr %0, ptr %3, align 8
  store ptr %1, ptr %4, align 8
  %5 = load ptr, ptr %3, align 8
  %6 = getelementptr inbounds nuw %"class.llvm::Triple", ptr %5, i32 0, i32 0
  %7 = load ptr, ptr %4, align 8
  %8 = getelementptr inbounds nuw %"class.llvm::Triple", ptr %7, i32 0, i32 0
  call void @_ZNSt7__cxx1112basic_stringIcSt11char_traitsIcESaIcEEC1ERKS4_(ptr noundef nonnull align 8 dereferenceable(32) %6, ptr noundef nonnull align 8 dereferenceable(32) %8)
  %9 = getelementptr inbounds nuw %"class.llvm::Triple", ptr %5, i32 0, i32 1
  %10 = load ptr, ptr %4, align 8
  %11 = getelementptr inbounds nuw %"class.llvm::Triple", ptr %10, i32 0, i32 1
  call void @llvm.memcpy.p0.p0.i64(ptr align 8 %9, ptr align 8 %11, i64 24, i1 false)
  ret void
}

; Function Attrs: mustprogress nounwind uwtable
define linkonce_odr hidden void @_ZN5clang7targets17WindowsTargetInfoINS0_15ARMleTargetInfoEEC2ERKN4llvm6TripleERKNS_13TargetOptionsE(ptr noundef nonnull align 8 dereferenceable(624) %0, ptr noundef nonnull align 8 dereferenceable(56) %1, ptr noundef nonnull align 8 dereferenceable(536) %2) unnamed_addr #0 comdat align 2 {
  %4 = alloca ptr, align 8
  %5 = alloca ptr, align 8
  %6 = alloca ptr, align 8
  store ptr %0, ptr %4, align 8
  store ptr %1, ptr %5, align 8
  store ptr %2, ptr %6, align 8
  %7 = load ptr, ptr %4, align 8
  %8 = load ptr, ptr %5, align 8
  %9 = load ptr, ptr %6, align 8
  call void @_ZN5clang7targets12OSTargetInfoINS0_15ARMleTargetInfoEEC2ERKN4llvm6TripleERKNS_13TargetOptionsE(ptr noundef nonnull align 8 dereferenceable(624) %7, ptr noundef nonnull align 8 dereferenceable(56) %8, ptr noundef nonnull align 8 dereferenceable(536) %9)
  store ptr getelementptr inbounds inrange(-16, 976) ({ [124 x ptr] }, ptr @_ZTVN5clang7targets17WindowsTargetInfoINS0_15ARMleTargetInfoEEE, i32 0, i32 0, i32 2), ptr %7, align 8
  %10 = getelementptr inbounds i8, ptr %7, i64 8
  %11 = getelementptr inbounds nuw %"struct.clang::TransferrableTargetInfo", ptr %10, i32 0, i32 62
  store i32 4, ptr %11, align 8
  %12 = getelementptr inbounds i8, ptr %7, i64 8
  %13 = getelementptr inbounds nuw %"struct.clang::TransferrableTargetInfo", ptr %12, i32 0, i32 63
  store i32 4, ptr %13, align 4
  ret void
}

; Function Attrs: mustprogress nounwind uwtable
define linkonce_odr hidden void @_ZN5clang12TargetCXXABI3setENS0_4KindE(ptr noundef nonnull align 4 dereferenceable(4) %0, i32 noundef %1) #0 comdat align 2 {
  %3 = alloca ptr, align 8
  %4 = alloca i32, align 4
  store ptr %0, ptr %3, align 8
  store i32 %1, ptr %4, align 4
  %5 = load ptr, ptr %3, align 8
  %6 = load i32, ptr %4, align 4
  %7 = getelementptr inbounds nuw %"class.clang::TargetCXXABI", ptr %5, i32 0, i32 0
  store i32 %6, ptr %7, align 4
  ret void
}

; Function Attrs: mustprogress nounwind uwtable
define hidden void @_ZN5clang7targets20WindowsARMTargetInfoC2ERKN4llvm6TripleERKNS_13TargetOptionsE(ptr noundef nonnull align 8 dereferenceable(680) %0, ptr noundef nonnull align 8 dereferenceable(56) %1, ptr noundef nonnull align 8 dereferenceable(536) %2) unnamed_addr #0 align 2 {
  %4 = alloca ptr, align 8
  %5 = alloca ptr, align 8
  %6 = alloca ptr, align 8
  store ptr %0, ptr %4, align 8
  store ptr %1, ptr %5, align 8
  store ptr %2, ptr %6, align 8
  %7 = load ptr, ptr %4, align 8
  %8 = load ptr, ptr %5, align 8
  %9 = load ptr, ptr %6, align 8
  call void @_ZN5clang7targets17WindowsTargetInfoINS0_15ARMleTargetInfoEEC2ERKN4llvm6TripleERKNS_13TargetOptionsE(ptr noundef nonnull align 8 dereferenceable(624) %7, ptr noundef nonnull align 8 dereferenceable(56) %8, ptr noundef nonnull align 8 dereferenceable(536) %9)
  store ptr getelementptr inbounds inrange(-16, 976) ({ [124 x ptr] }, ptr @_ZTVN5clang7targets20WindowsARMTargetInfoE, i32 0, i32 0, i32 2), ptr %7, align 8
  %10 = getelementptr inbounds nuw %"class.clang::targets::WindowsARMTargetInfo", ptr %7, i32 0, i32 1
  %11 = load ptr, ptr %5, align 8
  call void @_ZN4llvm6TripleC2ERKS0_(ptr noundef nonnull align 8 dereferenceable(56) %10, ptr noundef nonnull align 8 dereferenceable(56) %11)
  ret void
}

; Function Attrs: mustprogress nounwind uwtable
define hidden void @_ZN5clang7targets29ItaniumWindowsARMleTargetInfoC2ERKN4llvm6TripleERKNS_13TargetOptionsE(ptr noundef nonnull align 8 dereferenceable(680) %0, ptr noundef nonnull align 8 dereferenceable(56) %1, ptr noundef nonnull align 8 dereferenceable(536) %2) unnamed_addr #0 align 2 {
  %4 = alloca ptr, align 8
  %5 = alloca ptr, align 8
  %6 = alloca ptr, align 8
  store ptr %0, ptr %4, align 8
  store ptr %1, ptr %5, align 8
  store ptr %2, ptr %6, align 8
  %7 = load ptr, ptr %4, align 8
  %8 = load ptr, ptr %5, align 8
  %9 = load ptr, ptr %6, align 8
  call void @_ZN5clang7targets20WindowsARMTargetInfoC2ERKN4llvm6TripleERKNS_13TargetOptionsE(ptr noundef nonnull align 8 dereferenceable(680) %7, ptr noundef nonnull align 8 dereferenceable(56) %8, ptr noundef nonnull align 8 dereferenceable(536) %9)
  store ptr getelementptr inbounds inrange(-16, 976) ({ [124 x ptr] }, ptr @_ZTVN5clang7targets29ItaniumWindowsARMleTargetInfoE, i32 0, i32 0, i32 2), ptr %7, align 8
  %10 = getelementptr inbounds nuw %"class.clang::TargetInfo", ptr %7, i32 0, i32 27
  call void @_ZN5clang12TargetCXXABI3setENS0_4KindE(ptr noundef nonnull align 4 dereferenceable(4) %10, i32 noundef 1)
  ret void
}