; Function Attrs: mustprogress nounwind uwtable
define hidden void @_ZN5clang7targets29ItaniumWindowsARMleTargetInfoC2ERKN4llvm6TripleERKNS_13TargetOptionsE(ptr noundef nonnull align 8 dereferenceable(680) %0, ptr noundef nonnull align 8 dereferenceable(56) %1, ptr nocapture noundef nonnull readonly align 8 dereferenceable(536) %2) unnamed_addr #0 align 2 {
  tail call void @_ZN5clang7targets13ARMTargetInfoC2ERKN4llvm6TripleERKNS_13TargetOptionsE(ptr noundef nonnull align 8 dereferenceable(624) %0, ptr noundef nonnull align 8 dereferenceable(56) %1, ptr noundef nonnull readonly align 8 dereferenceable(536) %2)
  %4 = getelementptr inbounds i8, ptr %0, i64 152
  store i32 4, ptr %4, align 8
  %5 = getelementptr inbounds i8, ptr %0, i64 156
  store i32 4, ptr %5, align 4
  store ptr getelementptr inbounds inrange(-16, 976) (i8, ptr @_ZTVN5clang7targets20WindowsARMTargetInfoE, i64 16), ptr %0, align 8
  %6 = getelementptr inbounds nuw i8, ptr %0, i64 624
  tail call void @_ZNSt7__cxx1112basic_stringIcSt11char_traitsIcESaIcEEC1ERKS4_(ptr noundef nonnull align 8 dereferenceable(32) %6, ptr noundef nonnull align 8 dereferenceable(32) %1) #24
  %7 = getelementptr inbounds i8, ptr %0, i64 656
  %8 = getelementptr inbounds nuw i8, ptr %1, i64 32
  tail call void @llvm.memcpy.p0.p0.i64(ptr noundef nonnull align 8 dereferenceable(24) %7, ptr noundef nonnull align 8 dereferenceable(24) %8, i64 24, i1 false)
  store ptr getelementptr inbounds inrange(-16, 976) (i8, ptr @_ZTVN5clang7targets29ItaniumWindowsARMleTargetInfoE, i64 16), ptr %0, align 8
  %9 = getelementptr inbounds nuw i8, ptr %0, i64 340
  store i32 1, ptr %9, align 4
  ret void
}